; Function Attrs: nounwind uwtable
define internal void @aes_ocb_freectx(ptr noundef %0) #0 {
  %.not = icmp eq ptr %0, null
  br i1 %.not, label %4, label %2

2:                                                ; preds = %1
  %3 = getelementptr inbounds nuw i8, ptr %0, i64 688
  tail call void @CRYPTO_ocb128_cleanup(ptr noundef nonnull %3) #7
  tail call void @ossl_cipher_generic_reset_ctx(ptr noundef nonnull %0) #7
  tail call void @CRYPTO_clear_free(ptr noundef nonnull %0, i64 noundef 944, ptr noundef nonnull @.str, i32 noundef 330) #7
  br label %4

4:                                                ; preds = %2, %1
  ret void
}